target datalayout = "e-m:e-p270:32:32-p271:32:32-p272:64:64-i64:64-i128:128-f80:128-n8:16:32:64-S128"
target triple = "x86_64-unknown-linux-gnu"

%class.aiMatrix4x4t = type { float, float, float, float, float, float, float, float, float, float, float, float, float, float, float, float }
%struct.aiString = type { i32, [1024 x i8] }
%struct.aiNode = type { %struct.aiString, %class.aiMatrix4x4t, ptr, i32, ptr, i32, ptr, ptr }

; Function Attrs: mustprogress uwtable
define void @_ZN6Assimp12ScaleProcess13traverseNodesEP6aiNodej(ptr noundef nonnull align 8 dereferenceable(28) %this, ptr noundef %node, i32 noundef %nested_node_id) #3 align 2 {
entry:
  %this.addr = alloca ptr, align 8
  %node.addr = alloca ptr, align 8
  %nested_node_id.addr = alloca i32, align 4
  %i = alloca i64, align 8
  store ptr %this, ptr %this.addr, align 8
  store ptr %node, ptr %node.addr, align 8
  store i32 %nested_node_id, ptr %nested_node_id.addr, align 4
  %this1 = load ptr, ptr %this.addr, align 8
  %0 = load ptr, ptr %node.addr, align 8
  call void @_ZN6Assimp12ScaleProcess12applyScalingEP6aiNode(ptr noundef nonnull align 8 dereferenceable(28) %this1, ptr noundef %0)
  store i64 0, ptr %i, align 8
  br label %for.cond

for.cond:                                         ; preds = %for.inc, %entry
  %1 = load i64, ptr %i, align 8
  %2 = load ptr, ptr %node.addr, align 8
  %mNumChildren = getelementptr inbounds %struct.aiNode, ptr %2, i32 0, i32 3
  %3 = load i32, ptr %mNumChildren, align 8
  %conv = zext i32 %3 to i64
  %cmp = icmp ult i64 %1, %conv
  br i1 %cmp, label %for.body, label %for.end

for.body:                                         ; preds = %for.cond
  %4 = load ptr, ptr %node.addr, align 8
  %mChildren = getelementptr inbounds %struct.aiNode, ptr %4, i32 0, i32 4
  %5 = load ptr, ptr %mChildren, align 8
  %6 = load i64, ptr %i, align 8
  %arrayidx = getelementptr inbounds ptr, ptr %5, i64 %6
  %7 = load ptr, ptr %arrayidx, align 8
  %8 = load i32, ptr %nested_node_id.addr, align 4
  %add = add i32 %8, 1
  call void @_ZN6Assimp12ScaleProcess13traverseNodesEP6aiNodej(ptr noundef nonnull align 8 dereferenceable(28) %this1, ptr noundef %7, i32 noundef %add)
  br label %for.inc

for.inc:                                          ; preds = %for.body
  %9 = load i64, ptr %i, align 8
  %inc = add i64 %9, 1
  store i64 %inc, ptr %i, align 8
  br label %for.cond, !llvm.loop !13

for.end:                                          ; preds = %for.cond
  ret void
}