; Function Attrs: mustprogress uwtable
define void @_ZN6Assimp12ScaleProcess13traverseNodesEP6aiNodej(ptr nocapture noundef nonnull readonly align 8 dereferenceable(28) %this, ptr noundef %node, i32 noundef %nested_node_id) local_unnamed_addr #5 align 2 {
entry:
  tail call void @_ZN6Assimp12ScaleProcess12applyScalingEP6aiNode(ptr noundef nonnull align 8 dereferenceable(28) %this, ptr noundef %node)
  %mNumChildren = getelementptr inbounds i8, ptr %node, i64 1104
  %0 = load i32, ptr %mNumChildren, align 8
  %cmp6.not = icmp eq i32 %0, 0
  br i1 %cmp6.not, label %for.end, label %for.body.lr.ph

for.body.lr.ph:                                   ; preds = %entry
  %mChildren = getelementptr inbounds i8, ptr %node, i64 1112
  %add = add i32 %nested_node_id, 1
  br label %for.body

for.body:                                         ; preds = %for.body.lr.ph, %for.body
  %i.07 = phi i64 [ 0, %for.body.lr.ph ], [ %inc, %for.body ]
  %1 = load ptr, ptr %mChildren, align 8
  %arrayidx = getelementptr inbounds ptr, ptr %1, i64 %i.07
  %2 = load ptr, ptr %arrayidx, align 8
  tail call void @_ZN6Assimp12ScaleProcess13traverseNodesEP6aiNodej(ptr noundef nonnull align 8 dereferenceable(28) %this, ptr noundef %2, i32 noundef %add)
  %inc = add nuw nsw i64 %i.07, 1
  %3 = load i32, ptr %mNumChildren, align 8
  %conv = zext i32 %3 to i64
  %cmp = icmp ult i64 %inc, %conv
  br i1 %cmp, label %for.body, label %for.end, !llvm.loop !16

for.end:                                          ; preds = %for.body, %entry
  ret void
}